target datalayout = "e-m:e-p270:32:32-p271:32:32-p272:64:64-i64:64-i128:128-f80:128-n8:16:32:64-S128"
target triple = "x86_64-pc-linux-gnu"

%struct._e_guid_t = type { i32, i16, i16, [8 x i8] }
%struct._dcerpc_info = type { ptr, i32, i64, i8, i32, i32, i32, i32, i32, i32, i32, i32, i32, i32, ptr, ptr, ptr }
%struct._packet_info = type { ptr, ptr, i32, i32, %struct.nstime_t, %struct.nstime_t, %struct.nstime_t, i32, ptr, ptr, ptr, ptr, %struct._address, %struct._address, %struct._address, %struct._address, %struct._address, %struct._address, i32, ptr, i32, %struct.anon, i32, i32, i32, i32, ptr, i32, ptr, ptr, i16, i16, i32, i32, i16, i32, i32, ptr, ptr, ptr, i8, i8, i16, i16, i16, i32, i16, i16, ptr, ptr, ptr, ptr, ptr, i32 }
%struct.nstime_t = type { i64, i32 }
%struct._address = type { i32, i32, ptr, ptr }
%struct.anon = type { i8, [3 x i8] }
%struct._dcerpc_call_value = type { %struct._e_guid_t, i16, %struct._e_guid_t, i16, i32, %struct.nstime_t, i32, i32, ptr, ptr, ptr, i32 }
%struct._frame_data = type { i32, i32, i32, i32, i64, ptr, ptr, ptr, i16, i16, %struct.nstime_t, %struct.nstime_t, i32, i32, i8 }
%struct._e_ctx_hnd = type { i32, %struct._e_guid_t }

@hf_hnd = internal global i32 0, align 4
@hf_rc = internal global i32 0, align 4
@.str.757 = private unnamed_addr constant [5 x i8] c": %s\00", align 1
@.str.1237 = private unnamed_addr constant [21 x i8] c"ReplyOpenPrinter(%s)\00", align 1
@.str.1238 = private unnamed_addr constant [34 x i8] c"Unknown ReplyOpenPrinter() handle\00", align 1

; Function Attrs: nounwind uwtable
define internal i32 @SpoolssReplyOpenPrinter_r(ptr noundef %0, i32 noundef %1, ptr noundef %2, ptr noundef %3, ptr noundef %4, ptr noundef %5) #0 {
  %7 = alloca ptr, align 8
  %8 = alloca i32, align 4
  %9 = alloca ptr, align 8
  %10 = alloca ptr, align 8
  %11 = alloca ptr, align 8
  %12 = alloca ptr, align 8
  %13 = alloca ptr, align 8
  %14 = alloca %struct._e_ctx_hnd, align 4
  %15 = alloca ptr, align 8
  %16 = alloca i32, align 4
  %17 = alloca ptr, align 8
  store ptr %0, ptr %7, align 8
  store i32 %1, ptr %8, align 4
  store ptr %2, ptr %9, align 8
  store ptr %3, ptr %10, align 8
  store ptr %4, ptr %11, align 8
  store ptr %5, ptr %12, align 8
  %18 = load ptr, ptr %11, align 8
  %19 = getelementptr inbounds %struct._dcerpc_info, ptr %18, i32 0, i32 14
  %20 = load ptr, ptr %19, align 8
  store ptr %20, ptr %13, align 8
  %21 = load ptr, ptr %7, align 8
  %22 = load i32, ptr %8, align 4
  %23 = load ptr, ptr %9, align 8
  %24 = load ptr, ptr %10, align 8
  %25 = load ptr, ptr %11, align 8
  %26 = load ptr, ptr %12, align 8
  %27 = load i32, ptr @hf_hnd, align 4
  %28 = call i32 @dissect_nt_policy_hnd(ptr noundef %21, i32 noundef %22, ptr noundef %23, ptr noundef %24, ptr noundef %25, ptr noundef %26, i32 noundef %27, ptr noundef %14, ptr noundef %15, i32 noundef 1, i32 noundef 0)
  store i32 %28, ptr %8, align 4
  %29 = load ptr, ptr %7, align 8
  %30 = load i32, ptr %8, align 4
  %31 = load ptr, ptr %9, align 8
  %32 = load ptr, ptr %10, align 8
  %33 = load ptr, ptr %11, align 8
  %34 = load ptr, ptr %12, align 8
  %35 = load i32, ptr @hf_rc, align 4
  %36 = call i32 @dissect_doserror(ptr noundef %29, i32 noundef %30, ptr noundef %31, ptr noundef %32, ptr noundef %33, ptr noundef %34, i32 noundef %35, ptr noundef %16)
  store i32 %36, ptr %8, align 4
  %37 = load i32, ptr %16, align 4
  %38 = icmp eq i32 %37, 0
  br i1 %38, label %39, label %73

39:                                               ; preds = %6
  %40 = load ptr, ptr %13, align 8
  %41 = getelementptr inbounds %struct._dcerpc_call_value, ptr %40, i32 0, i32 8
  %42 = load ptr, ptr %41, align 8
  %43 = icmp ne ptr %42, null
  br i1 %43, label %44, label %52

44:                                               ; preds = %39
  %45 = load ptr, ptr %9, align 8
  %46 = getelementptr inbounds %struct._packet_info, ptr %45, i32 0, i32 50
  %47 = load ptr, ptr %46, align 8
  %48 = load ptr, ptr %13, align 8
  %49 = getelementptr inbounds %struct._dcerpc_call_value, ptr %48, i32 0, i32 8
  %50 = load ptr, ptr %49, align 8
  %51 = call noalias ptr (ptr, ptr, ...) @wmem_strdup_printf(ptr noundef %47, ptr noundef @.str.1237, ptr noundef %50)
  store ptr %51, ptr %17, align 8
  br label %53

52:                                               ; preds = %39
  store ptr @.str.1238, ptr %17, align 8
  br label %53

53:                                               ; preds = %52, %44
  %54 = load ptr, ptr %9, align 8
  %55 = getelementptr inbounds %struct._packet_info, ptr %54, i32 0, i32 8
  %56 = load ptr, ptr %55, align 8
  %57 = getelementptr inbounds %struct._frame_data, ptr %56, i32 0, i32 9
  %58 = load i16, ptr %57, align 2
  %59 = lshr i16 %58, 3
  %60 = and i16 %59, 1
  %61 = zext i16 %60 to i32
  %62 = icmp ne i32 %61, 0
  br i1 %62, label %66, label %63

63:                                               ; preds = %53
  %64 = load ptr, ptr %9, align 8
  %65 = load ptr, ptr %17, align 8
  call void @dcerpc_store_polhnd_name(ptr noundef %14, ptr noundef %64, ptr noundef %65)
  br label %66

66:                                               ; preds = %63, %53
  %67 = load ptr, ptr %15, align 8
  %68 = icmp ne ptr %67, null
  br i1 %68, label %69, label %72

69:                                               ; preds = %66
  %70 = load ptr, ptr %15, align 8
  %71 = load ptr, ptr %17, align 8
  call void (ptr, ptr, ...) @proto_item_append_text(ptr noundef %70, ptr noundef @.str.757, ptr noundef %71)
  br label %72

72:                                               ; preds = %69, %66
  br label %73

73:                                               ; preds = %72, %6
  %74 = load i32, ptr %8, align 4
  ret i32 %74
}