; Function Attrs: nounwind uwtable
define internal i32 @SpoolssReplyOpenPrinter_r(ptr noundef %0, i32 noundef %1, ptr noundef %2, ptr noundef %3, ptr noundef %4, ptr noundef %5) #0 {
  %7 = alloca %struct._e_ctx_hnd, align 4
  %8 = alloca ptr, align 8
  %9 = alloca i32, align 4
  %10 = getelementptr inbounds nuw i8, ptr %4, i64 72
  %11 = load ptr, ptr %10, align 8
  %12 = load i32, ptr @hf_hnd, align 4
  %13 = call i32 @dissect_nt_policy_hnd(ptr noundef %0, i32 noundef %1, ptr noundef %2, ptr noundef %3, ptr noundef %4, ptr noundef %5, i32 noundef %12, ptr noundef nonnull %7, ptr noundef nonnull %8, i32 noundef 1, i32 noundef 0) #5
  %14 = load i32, ptr @hf_rc, align 4
  %15 = call i32 @dissect_doserror(ptr noundef %0, i32 noundef %13, ptr noundef %2, ptr noundef %3, ptr noundef %4, ptr noundef %5, i32 noundef %14, ptr noundef nonnull %9) #5
  %16 = load i32, ptr %9, align 4
  %17 = icmp eq i32 %16, 0
  br i1 %17, label %18, label %35

18:                                               ; preds = %6
  %19 = getelementptr inbounds nuw i8, ptr %11, i64 72
  %20 = load ptr, ptr %19, align 8
  %.not = icmp eq ptr %20, null
  br i1 %.not, label %25, label %21

21:                                               ; preds = %18
  %22 = getelementptr inbounds nuw i8, ptr %2, i64 408
  %23 = load ptr, ptr %22, align 8
  %24 = call noalias ptr (ptr, ptr, ...) @wmem_strdup_printf(ptr noundef %23, ptr noundef nonnull @.str.1237, ptr noundef nonnull %20) #5
  br label %25

25:                                               ; preds = %18, %21
  %.0 = phi ptr [ %24, %21 ], [ @.str.1238, %18 ]
  %26 = getelementptr inbounds nuw i8, ptr %2, i64 80
  %27 = load ptr, ptr %26, align 8
  %28 = getelementptr inbounds nuw i8, ptr %27, i64 50
  %29 = load i16, ptr %28, align 2
  %30 = and i16 %29, 8
  %.not22 = icmp eq i16 %30, 0
  br i1 %.not22, label %31, label %32

31:                                               ; preds = %25
  call void @dcerpc_store_polhnd_name(ptr noundef nonnull %7, ptr noundef nonnull %2, ptr noundef %.0) #5
  br label %32

32:                                               ; preds = %31, %25
  %33 = load ptr, ptr %8, align 8
  %.not23 = icmp eq ptr %33, null
  br i1 %.not23, label %35, label %34

34:                                               ; preds = %32
  call void (ptr, ptr, ...) @proto_item_append_text(ptr noundef nonnull %33, ptr noundef nonnull @.str.757, ptr noundef %.0) #5
  br label %35

35:                                               ; preds = %32, %34, %6
  ret i32 %15
}